target datalayout = "e-m:e-p270:32:32-p271:32:32-p272:64:64-i64:64-i128:128-f80:128-n8:16:32:64-S128"
target triple = "x86_64-pc-linux-gnu"

%struct.OSSL_TIME = type { i64 }
%struct.ssl_session_st = type { i32, i64, [64 x i8], [512 x i8], i64, [32 x i8], i64, [32 x i8], ptr, ptr, i32, ptr, ptr, ptr, i64, %struct.OSSL_TIME, %struct.OSSL_TIME, %struct.OSSL_TIME, i32, ptr, i64, i32, %struct.crypto_ex_data_st, %struct.anon, ptr, ptr, i64, i32, ptr, ptr, ptr, %struct.CRYPTO_REF_COUNT }
%struct.crypto_ex_data_st = type { ptr, ptr }
%struct.anon = type { ptr, ptr, i64, i64, i32, i32, ptr, i64, i8 }
%struct.CRYPTO_REF_COUNT = type { i32 }

@.str = private unnamed_addr constant [26 x i8] c"../openssl/ssl/ssl_sess.c\00", align 1
@__func__.SSL_SESSION_set1_id_context = private unnamed_addr constant [28 x i8] c"SSL_SESSION_set1_id_context\00", align 1

; Function Attrs: nounwind uwtable
define i32 @SSL_SESSION_set1_id_context(ptr noundef %0, ptr noundef %1, i32 noundef %2) #0 {
  %4 = alloca i32, align 4
  %5 = alloca ptr, align 8
  %6 = alloca ptr, align 8
  %7 = alloca i32, align 4
  store ptr %0, ptr %5, align 8, !tbaa !3
  store ptr %1, ptr %6, align 8, !tbaa !127
  store i32 %2, ptr %7, align 4, !tbaa !11
  %8 = load i32, ptr %7, align 4, !tbaa !11
  %9 = icmp ugt i32 %8, 32
  br i1 %9, label %10, label %11

10:                                               ; preds = %3
  call void @ERR_new()
  call void @ERR_set_debug(ptr noundef @.str, i32 noundef 1102, ptr noundef @__func__.SSL_SESSION_set1_id_context)
  call void (i32, i32, ptr, ...) @ERR_set_error(i32 noundef 20, i32 noundef 273, ptr noundef null)
  store i32 0, ptr %4, align 4
  br label %29

11:                                               ; preds = %3
  %12 = load i32, ptr %7, align 4, !tbaa !11
  %13 = zext i32 %12 to i64
  %14 = load ptr, ptr %5, align 8, !tbaa !3
  %15 = getelementptr inbounds nuw %struct.ssl_session_st, ptr %14, i32 0, i32 6
  store i64 %13, ptr %15, align 8, !tbaa !104
  %16 = load ptr, ptr %6, align 8, !tbaa !127
  %17 = load ptr, ptr %5, align 8, !tbaa !3
  %18 = getelementptr inbounds nuw %struct.ssl_session_st, ptr %17, i32 0, i32 7
  %19 = getelementptr inbounds [32 x i8], ptr %18, i64 0, i64 0
  %20 = icmp ne ptr %16, %19
  br i1 %20, label %21, label %28

21:                                               ; preds = %11
  %22 = load ptr, ptr %5, align 8, !tbaa !3
  %23 = getelementptr inbounds nuw %struct.ssl_session_st, ptr %22, i32 0, i32 7
  %24 = getelementptr inbounds [32 x i8], ptr %23, i64 0, i64 0
  %25 = load ptr, ptr %6, align 8, !tbaa !127
  %26 = load i32, ptr %7, align 4, !tbaa !11
  %27 = zext i32 %26 to i64
  call void @llvm.memcpy.p0.p0.i64(ptr align 8 %24, ptr align 1 %25, i64 %27, i1 false)
  br label %28

28:                                               ; preds = %21, %11
  store i32 1, ptr %4, align 4
  br label %29

29:                                               ; preds = %28, %10
  %30 = load i32, ptr %4, align 4
  ret i32 %30
}